target datalayout = "e-m:e-p270:32:32-p271:32:32-p272:64:64-i64:64-i128:128-f80:128-n8:16:32:64-S128"
target triple = "x86_64-pc-linux-gnu"

%"struct.duckdb_yyjson::pool_ctx" = type { i64, ptr }
%"struct.duckdb_yyjson::pool_chunk" = type { i64, ptr }

; Function Attrs: alwaysinline mustprogress nounwind uwtable
define internal noundef zeroext i1 @_ZN13duckdb_yyjsonL12size_is_pow2Em(i64 noundef %0) #7 {
  %2 = alloca i64, align 8
  store i64 %0, ptr %2, align 8, !tbaa !9
  %3 = load i64, ptr %2, align 8, !tbaa !9
  %4 = load i64, ptr %2, align 8, !tbaa !9
  %5 = sub i64 %4, 1
  %6 = and i64 %3, %5
  %7 = icmp eq i64 %6, 0
  ret i1 %7
}

; Function Attrs: alwaysinline mustprogress nounwind uwtable
define internal noundef i64 @_ZN13duckdb_yyjsonL13size_align_upEmm(i64 noundef %0, i64 noundef %1) #7 {
  %3 = alloca i64, align 8
  %4 = alloca i64, align 8
  %5 = alloca i64, align 8
  store i64 %0, ptr %4, align 8, !tbaa !9
  store i64 %1, ptr %5, align 8, !tbaa !9
  %6 = load i64, ptr %5, align 8, !tbaa !9
  %7 = call noundef zeroext i1 @_ZN13duckdb_yyjsonL12size_is_pow2Em(i64 noundef %6)
  br i1 %7, label %8, label %17

8:                                                ; preds = %2
  %9 = load i64, ptr %4, align 8, !tbaa !9
  %10 = load i64, ptr %5, align 8, !tbaa !9
  %11 = sub i64 %10, 1
  %12 = add i64 %9, %11
  %13 = load i64, ptr %5, align 8, !tbaa !9
  %14 = sub i64 %13, 1
  %15 = xor i64 %14, -1
  %16 = and i64 %12, %15
  store i64 %16, ptr %3, align 8
  br label %29

17:                                               ; preds = %2
  %18 = load i64, ptr %4, align 8, !tbaa !9
  %19 = load i64, ptr %5, align 8, !tbaa !9
  %20 = add i64 %18, %19
  %21 = load i64, ptr %4, align 8, !tbaa !9
  %22 = load i64, ptr %5, align 8, !tbaa !9
  %23 = add i64 %21, %22
  %24 = sub i64 %23, 1
  %25 = load i64, ptr %5, align 8, !tbaa !9
  %26 = urem i64 %24, %25
  %27 = sub i64 %20, %26
  %28 = sub i64 %27, 1
  store i64 %28, ptr %3, align 8
  br label %29

29:                                               ; preds = %17, %8
  %30 = load i64, ptr %3, align 8
  ret i64 %30
}

; Function Attrs: alwaysinline mustprogress uwtable
define internal void @_ZN13duckdb_yyjsonL15pool_size_alignEPm(ptr noundef %0) #5 {
  %2 = alloca ptr, align 8
  store ptr %0, ptr %2, align 8, !tbaa !107
  %3 = load ptr, ptr %2, align 8, !tbaa !107
  %4 = load i64, ptr %3, align 8, !tbaa !9
  %5 = call noundef i64 @_ZN13duckdb_yyjsonL13size_align_upEmm(i64 noundef %4, i64 noundef 16)
  %6 = add i64 %5, 16
  %7 = load ptr, ptr %2, align 8, !tbaa !107
  store i64 %6, ptr %7, align 8, !tbaa !9
  ret void
}

; Function Attrs: mustprogress uwtable
define internal noundef ptr @_ZN13duckdb_yyjsonL11pool_mallocEPvm(ptr noundef %0, i64 noundef %1) #1 {
  %3 = alloca ptr, align 8
  %4 = alloca ptr, align 8
  %5 = alloca i64, align 8
  %6 = alloca ptr, align 8
  %7 = alloca ptr, align 8
  %8 = alloca ptr, align 8
  %9 = alloca ptr, align 8
  %10 = alloca i32, align 4
  store ptr %0, ptr %4, align 8, !tbaa !8
  store i64 %1, ptr %5, align 8, !tbaa !9
  call void @llvm.lifetime.start.p0(i64 8, ptr %6) #15
  %11 = load ptr, ptr %4, align 8, !tbaa !8
  store ptr %11, ptr %6, align 8, !tbaa !12
  call void @llvm.lifetime.start.p0(i64 8, ptr %7) #15
  call void @llvm.lifetime.start.p0(i64 8, ptr %8) #15
  store ptr null, ptr %8, align 8, !tbaa !14
  call void @llvm.lifetime.start.p0(i64 8, ptr %9) #15
  %12 = load ptr, ptr %6, align 8, !tbaa !12
  %13 = getelementptr inbounds nuw %"struct.duckdb_yyjson::pool_ctx", ptr %12, i32 0, i32 1
  %14 = load ptr, ptr %13, align 8, !tbaa !21
  store ptr %14, ptr %9, align 8, !tbaa !14
  %15 = load i64, ptr %5, align 8, !tbaa !9
  %16 = load ptr, ptr %6, align 8, !tbaa !12
  %17 = getelementptr inbounds nuw %"struct.duckdb_yyjson::pool_ctx", ptr %16, i32 0, i32 0
  %18 = load i64, ptr %17, align 8, !tbaa !19
  %19 = icmp uge i64 %15, %18
  %20 = xor i1 %19, true
  %21 = xor i1 %20, true
  %22 = zext i1 %21 to i64
  %23 = call i64 @llvm.expect.i64(i64 %22, i64 0)
  %24 = icmp ne i64 %23, 0
  br i1 %24, label %25, label %26

25:                                               ; preds = %2
  store ptr null, ptr %3, align 8
  store i32 1, ptr %10, align 4
  br label %86

26:                                               ; preds = %2
  call void @_ZN13duckdb_yyjsonL15pool_size_alignEPm(ptr noundef %5)
  br label %27

27:                                               ; preds = %36, %26
  %28 = load ptr, ptr %9, align 8, !tbaa !14
  %29 = icmp ne ptr %28, null
  br i1 %29, label %30, label %85

30:                                               ; preds = %27
  %31 = load ptr, ptr %9, align 8, !tbaa !14
  %32 = getelementptr inbounds nuw %"struct.duckdb_yyjson::pool_chunk", ptr %31, i32 0, i32 0
  %33 = load i64, ptr %32, align 8, !tbaa !16
  %34 = load i64, ptr %5, align 8, !tbaa !9
  %35 = icmp ult i64 %33, %34
  br i1 %35, label %36, label %41

36:                                               ; preds = %30
  %37 = load ptr, ptr %9, align 8, !tbaa !14
  store ptr %37, ptr %8, align 8, !tbaa !14
  %38 = load ptr, ptr %9, align 8, !tbaa !14
  %39 = getelementptr inbounds nuw %"struct.duckdb_yyjson::pool_chunk", ptr %38, i32 0, i32 1
  %40 = load ptr, ptr %39, align 8, !tbaa !18
  store ptr %40, ptr %9, align 8, !tbaa !14
  br label %27, !llvm.loop !27

41:                                               ; preds = %30
  %42 = load ptr, ptr %9, align 8, !tbaa !14
  %43 = getelementptr inbounds nuw %"struct.duckdb_yyjson::pool_chunk", ptr %42, i32 0, i32 0
  %44 = load i64, ptr %43, align 8, !tbaa !16
  %45 = load i64, ptr %5, align 8, !tbaa !9
  %46 = add i64 %45, 32
  %47 = icmp uge i64 %44, %46
  br i1 %47, label %48, label %67

48:                                               ; preds = %41
  %49 = load ptr, ptr %9, align 8, !tbaa !14
  %50 = load i64, ptr %5, align 8, !tbaa !9
  %51 = getelementptr inbounds nuw i8, ptr %49, i64 %50
  store ptr %51, ptr %7, align 8, !tbaa !14
  %52 = load ptr, ptr %9, align 8, !tbaa !14
  %53 = getelementptr inbounds nuw %"struct.duckdb_yyjson::pool_chunk", ptr %52, i32 0, i32 0
  %54 = load i64, ptr %53, align 8, !tbaa !16
  %55 = load i64, ptr %5, align 8, !tbaa !9
  %56 = sub i64 %54, %55
  %57 = load ptr, ptr %7, align 8, !tbaa !14
  %58 = getelementptr inbounds nuw %"struct.duckdb_yyjson::pool_chunk", ptr %57, i32 0, i32 0
  store i64 %56, ptr %58, align 8, !tbaa !16
  %59 = load ptr, ptr %9, align 8, !tbaa !14
  %60 = getelementptr inbounds nuw %"struct.duckdb_yyjson::pool_chunk", ptr %59, i32 0, i32 1
  %61 = load ptr, ptr %60, align 8, !tbaa !18
  %62 = load ptr, ptr %7, align 8, !tbaa !14
  %63 = getelementptr inbounds nuw %"struct.duckdb_yyjson::pool_chunk", ptr %62, i32 0, i32 1
  store ptr %61, ptr %63, align 8, !tbaa !18
  %64 = load i64, ptr %5, align 8, !tbaa !9
  %65 = load ptr, ptr %9, align 8, !tbaa !14
  %66 = getelementptr inbounds nuw %"struct.duckdb_yyjson::pool_chunk", ptr %65, i32 0, i32 0
  store i64 %64, ptr %66, align 8, !tbaa !16
  br label %71

67:                                               ; preds = %41
  %68 = load ptr, ptr %9, align 8, !tbaa !14
  %69 = getelementptr inbounds nuw %"struct.duckdb_yyjson::pool_chunk", ptr %68, i32 0, i32 1
  %70 = load ptr, ptr %69, align 8, !tbaa !18
  store ptr %70, ptr %7, align 8, !tbaa !14
  br label %71

71:                                               ; preds = %67, %48
  %72 = load ptr, ptr %8, align 8, !tbaa !14
  %73 = icmp ne ptr %72, null
  br i1 %73, label %74, label %78

74:                                               ; preds = %71
  %75 = load ptr, ptr %7, align 8, !tbaa !14
  %76 = load ptr, ptr %8, align 8, !tbaa !14
  %77 = getelementptr inbounds nuw %"struct.duckdb_yyjson::pool_chunk", ptr %76, i32 0, i32 1
  store ptr %75, ptr %77, align 8, !tbaa !18
  br label %82

78:                                               ; preds = %71
  %79 = load ptr, ptr %7, align 8, !tbaa !14
  %80 = load ptr, ptr %6, align 8, !tbaa !12
  %81 = getelementptr inbounds nuw %"struct.duckdb_yyjson::pool_ctx", ptr %80, i32 0, i32 1
  store ptr %79, ptr %81, align 8, !tbaa !21
  br label %82

82:                                               ; preds = %78, %74
  %83 = load ptr, ptr %9, align 8, !tbaa !14
  %84 = getelementptr inbounds %"struct.duckdb_yyjson::pool_chunk", ptr %83, i64 1
  store ptr %84, ptr %3, align 8
  store i32 1, ptr %10, align 4
  br label %86

85:                                               ; preds = %27
  store ptr null, ptr %3, align 8
  store i32 1, ptr %10, align 4
  br label %86

86:                                               ; preds = %85, %82, %25
  call void @llvm.lifetime.end.p0(i64 8, ptr %9) #15
  call void @llvm.lifetime.end.p0(i64 8, ptr %8) #15
  call void @llvm.lifetime.end.p0(i64 8, ptr %7) #15
  call void @llvm.lifetime.end.p0(i64 8, ptr %6) #15
  %87 = load ptr, ptr %3, align 8
  ret ptr %87
}